; ModuleID = '23/976.c'
source_filename = "23/976.c"
target datalayout = "e-m:e-p270:32:32-p271:32:32-p272:64:64-i64:64-f80:128-n8:16:32:64-S128"
target triple = "x86_64-pc-linux-gnu"

@.str = private unnamed_addr constant [3 x i8] c"%s\00", align 1
@.str.1 = private unnamed_addr constant [4 x i8] c"%s \00", align 1

; Function Attrs: noinline nounwind uwtable
define dso_local void @main() #0 {
  %1 = alloca i32, align 4
  %2 = alloca [100 x [100 x i8]], align 16
  %3 = alloca [100 x i8]*, align 8
  store i32 0, i32* %1, align 4
  %4 = getelementptr inbounds [100 x [100 x i8]], [100 x [100 x i8]]* %2, i64 0, i64 0
  store [100 x i8]* %4, [100 x i8]** %3, align 8
  br label %5

5:                                                ; preds = %12, %0
  %6 = load [100 x i8]*, [100 x i8]** %3, align 8
  %7 = load i32, i32* %1, align 4
  %8 = sext i32 %7 to i64
  %9 = getelementptr inbounds [100 x i8], [100 x i8]* %6, i64 %8
  %10 = call i32 (i8*, ...) @__isoc99_scanf(i8* getelementptr inbounds ([3 x i8], [3 x i8]* @.str, i64 0, i64 0), [100 x i8]* %9)
  %11 = icmp ne i32 %10, -1
  br i1 %11, label %12, label %15

12:                                               ; preds = %5
  %13 = load i32, i32* %1, align 4
  %14 = add nsw i32 %13, 1
  store i32 %14, i32* %1, align 4
  br label %5

15:                                               ; preds = %5
  %16 = load i32, i32* %1, align 4
  %17 = add nsw i32 %16, -1
  store i32 %17, i32* %1, align 4
  br label %18

18:                                               ; preds = %27, %15
  %19 = load i32, i32* %1, align 4
  %20 = icmp sgt i32 %19, 0
  br i1 %20, label %21, label %30

21:                                               ; preds = %18
  %22 = load [100 x i8]*, [100 x i8]** %3, align 8
  %23 = load i32, i32* %1, align 4
  %24 = sext i32 %23 to i64
  %25 = getelementptr inbounds [100 x i8], [100 x i8]* %22, i64 %24
  %26 = call i32 (i8*, ...) @printf(i8* getelementptr inbounds ([4 x i8], [4 x i8]* @.str.1, i64 0, i64 0), [100 x i8]* %25)
  br label %27

27:                                               ; preds = %21
  %28 = load i32, i32* %1, align 4
  %29 = add nsw i32 %28, -1
  store i32 %29, i32* %1, align 4
  br label %18

30:                                               ; preds = %18
  %31 = load [100 x i8]*, [100 x i8]** %3, align 8
  %32 = call i32 (i8*, ...) @printf(i8* getelementptr inbounds ([3 x i8], [3 x i8]* @.str, i64 0, i64 0), [100 x i8]* %31)
  ret void
}

declare dso_local i32 @__isoc99_scanf(i8*, ...) #1

declare dso_local i32 @printf(i8*, ...) #1


!llvm.module.flags = !{!0}
!llvm.ident = !{!1}

!0 = !{i32 1, !"wchar_size", i32 4}
!1 = !{!"clang version 10.0.0-4ubuntu1 "}
